target datalayout = "e-m:e-p270:32:32-p271:32:32-p272:64:64-i64:64-i128:128-f80:128-n8:16:32:64-S128"
target triple = "x86_64-pc-linux-gnu"

%struct.req_list = type { ptr, ptr }
%struct.tmpi_req_ = type { i32, ptr, ptr, ptr, i32, i32, i64, i32, ptr, ptr }

@TMPI_COMM_WORLD = external global ptr, align 8

; Function Attrs: mustprogress uwtable
define noundef ptr @_Z12tMPI_Get_reqP8req_list(ptr noundef %0) #0 {
  %2 = alloca ptr, align 8
  %3 = alloca ptr, align 8
  %4 = alloca ptr, align 8
  %5 = alloca i32, align 4
  store ptr %0, ptr %3, align 8, !tbaa !41
  call void @llvm.lifetime.start.p0(i64 8, ptr %4) #7
  %6 = load ptr, ptr %3, align 8, !tbaa !41
  %7 = getelementptr inbounds nuw %struct.req_list, ptr %6, i32 0, i32 0
  %8 = load ptr, ptr %7, align 8, !tbaa !46
  store ptr %8, ptr %4, align 8, !tbaa !51
  %9 = load ptr, ptr %4, align 8, !tbaa !51
  %10 = icmp ne ptr %9, null
  br i1 %10, label %14, label %11

11:                                               ; preds = %1
  %12 = load ptr, ptr @TMPI_COMM_WORLD, align 8, !tbaa !52
  %13 = call noundef i32 @_Z10tMPI_ErrorP10tmpi_comm_i(ptr noundef %12, i32 noundef 21)
  store ptr null, ptr %2, align 8
  store i32 1, ptr %5, align 4
  br label %23

14:                                               ; preds = %1
  %15 = load ptr, ptr %4, align 8, !tbaa !51
  %16 = getelementptr inbounds nuw %struct.tmpi_req_, ptr %15, i32 0, i32 8
  %17 = load ptr, ptr %16, align 8, !tbaa !49
  %18 = load ptr, ptr %3, align 8, !tbaa !41
  %19 = getelementptr inbounds nuw %struct.req_list, ptr %18, i32 0, i32 0
  store ptr %17, ptr %19, align 8, !tbaa !46
  %20 = load ptr, ptr %4, align 8, !tbaa !51
  %21 = getelementptr inbounds nuw %struct.tmpi_req_, ptr %20, i32 0, i32 8
  store ptr null, ptr %21, align 8, !tbaa !49
  %22 = load ptr, ptr %4, align 8, !tbaa !51
  store ptr %22, ptr %2, align 8
  store i32 1, ptr %5, align 4
  br label %23

23:                                               ; preds = %14, %11
  call void @llvm.lifetime.end.p0(i64 8, ptr %4) #7
  %24 = load ptr, ptr %2, align 8
  ret ptr %24
}