; Function Attrs: mustprogress uwtable
define noundef ptr @_Z12tMPI_Get_reqP8req_list(ptr noundef captures(none) %0) local_unnamed_addr #0 {
  %2 = load ptr, ptr %0, align 8, !tbaa !39
  %.not = icmp eq ptr %2, null
  br i1 %.not, label %3, label %6

3:                                                ; preds = %1
  %4 = load ptr, ptr @TMPI_COMM_WORLD, align 8, !tbaa !44
  %5 = tail call noundef i32 @_Z10tMPI_ErrorP10tmpi_comm_i(ptr noundef %4, i32 noundef 21)
  br label %9

6:                                                ; preds = %1
  %7 = getelementptr inbounds nuw i8, ptr %2, i64 56
  %8 = load ptr, ptr %7, align 8, !tbaa !42
  store ptr %8, ptr %0, align 8, !tbaa !39
  store ptr null, ptr %7, align 8, !tbaa !42
  br label %9

9:                                                ; preds = %6, %3
  ret ptr %2
}